; Function Attrs: null_pointer_is_valid sspstrong uwtable
define i64 @tvb_get_int64(ptr noundef %0, i32 noundef %1, i32 noundef %2) local_unnamed_addr #0 {
  %.not = icmp sgt i32 %2, -1
  %4 = tail call fastcc ptr @fast_ensure_contiguous(ptr noundef %0, i32 noundef %1, i32 noundef 8)
  br i1 %.not, label %7, label %5

5:                                                ; preds = %3
  %6 = load i64, ptr %4, align 1
  br label %45

7:                                                ; preds = %3
  %8 = load i8, ptr %4, align 1
  %9 = zext i8 %8 to i64
  %10 = shl nuw i64 %9, 56
  %11 = getelementptr i8, ptr %4, i64 1
  %12 = load i8, ptr %11, align 1
  %13 = zext i8 %12 to i64
  %14 = shl nuw nsw i64 %13, 48
  %15 = or disjoint i64 %14, %10
  %16 = getelementptr i8, ptr %4, i64 2
  %17 = load i8, ptr %16, align 1
  %18 = zext i8 %17 to i64
  %19 = shl nuw nsw i64 %18, 40
  %20 = or disjoint i64 %15, %19
  %21 = getelementptr i8, ptr %4, i64 3
  %22 = load i8, ptr %21, align 1
  %23 = zext i8 %22 to i64
  %24 = shl nuw nsw i64 %23, 32
  %25 = or disjoint i64 %20, %24
  %26 = getelementptr i8, ptr %4, i64 4
  %27 = load i8, ptr %26, align 1
  %28 = zext i8 %27 to i64
  %29 = shl nuw nsw i64 %28, 24
  %30 = or disjoint i64 %25, %29
  %31 = getelementptr i8, ptr %4, i64 5
  %32 = load i8, ptr %31, align 1
  %33 = zext i8 %32 to i64
  %34 = shl nuw nsw i64 %33, 16
  %35 = or disjoint i64 %30, %34
  %36 = getelementptr i8, ptr %4, i64 6
  %37 = load i8, ptr %36, align 1
  %38 = zext i8 %37 to i64
  %39 = shl nuw nsw i64 %38, 8
  %40 = or i64 %35, %39
  %41 = getelementptr i8, ptr %4, i64 7
  %42 = load i8, ptr %41, align 1
  %43 = zext i8 %42 to i64
  %44 = or i64 %40, %43
  br label %45

45:                                               ; preds = %7, %5
  %.0 = phi i64 [ %6, %5 ], [ %44, %7 ]
  ret i64 %.0
}